target datalayout = "e-m:e-p270:32:32-p271:32:32-p272:64:64-i64:64-i128:128-f80:128-n8:16:32:64-S128"
target triple = "x86_64-pc-linux-gnu"

%"class.std::__cxx11::basic_string" = type { %"struct.std::__cxx11::basic_string<char>::_Alloc_hider", i64, %union.anon }
%"struct.std::__cxx11::basic_string<char>::_Alloc_hider" = type { ptr }
%union.anon = type { i64, [8 x i8] }
%"class.cmProcessTools::LineParser" = type <{ %"class.cmProcessTools::OutputParser", ptr, ptr, %"class.std::__cxx11::basic_string", i8, i8, i8, [5 x i8] }>
%"class.cmProcessTools::OutputParser" = type { ptr }

@.str.1 = private unnamed_addr constant [2 x i8] c"\0A\00", align 1

; Function Attrs: mustprogress uwtable
define dso_local noundef zeroext i1 @_ZN14cmProcessTools10LineParser12ProcessChunkEPKci(ptr noundef nonnull align 8 dereferenceable(59) %0, ptr noundef %1, i32 noundef %2) unnamed_addr #0 align 2 {
  %4 = alloca i1, align 1
  %5 = alloca ptr, align 8
  %6 = alloca ptr, align 8
  %7 = alloca i32, align 4
  %8 = alloca ptr, align 8
  %9 = alloca ptr, align 8
  store ptr %0, ptr %5, align 8
  store ptr %1, ptr %6, align 8
  store i32 %2, ptr %7, align 4
  %10 = load ptr, ptr %5, align 8
  %11 = load ptr, ptr %6, align 8
  %12 = load i32, ptr %7, align 4
  %13 = sext i32 %12 to i64
  %14 = getelementptr inbounds i8, ptr %11, i64 %13
  store ptr %14, ptr %8, align 8
  %15 = load ptr, ptr %6, align 8
  store ptr %15, ptr %9, align 8
  br label %16

16:                                               ; preds = %78, %3
  %17 = load ptr, ptr %9, align 8
  %18 = load ptr, ptr %8, align 8
  %19 = icmp ne ptr %17, %18
  br i1 %19, label %20, label %81

20:                                               ; preds = %16
  %21 = load ptr, ptr %9, align 8
  %22 = load i8, ptr %21, align 1
  %23 = sext i8 %22 to i32
  %24 = getelementptr inbounds %"class.cmProcessTools::LineParser", ptr %10, i32 0, i32 4
  %25 = load i8, ptr %24, align 8
  %26 = sext i8 %25 to i32
  %27 = icmp eq i32 %23, %26
  br i1 %27, label %33, label %28

28:                                               ; preds = %20
  %29 = load ptr, ptr %9, align 8
  %30 = load i8, ptr %29, align 1
  %31 = sext i8 %30 to i32
  %32 = icmp eq i32 %31, 0
  br i1 %32, label %33, label %62

33:                                               ; preds = %28, %20
  %34 = load ptr, ptr %9, align 8
  %35 = load i8, ptr %34, align 1
  %36 = getelementptr inbounds %"class.cmProcessTools::LineParser", ptr %10, i32 0, i32 5
  store i8 %35, ptr %36, align 1
  %37 = getelementptr inbounds %"class.cmProcessTools::LineParser", ptr %10, i32 0, i32 1
  %38 = load ptr, ptr %37, align 8
  %39 = icmp ne ptr %38, null
  br i1 %39, label %40, label %53

40:                                               ; preds = %33
  %41 = getelementptr inbounds %"class.cmProcessTools::LineParser", ptr %10, i32 0, i32 2
  %42 = load ptr, ptr %41, align 8
  %43 = icmp ne ptr %42, null
  br i1 %43, label %44, label %53

44:                                               ; preds = %40
  %45 = getelementptr inbounds %"class.cmProcessTools::LineParser", ptr %10, i32 0, i32 1
  %46 = load ptr, ptr %45, align 8
  %47 = getelementptr inbounds %"class.cmProcessTools::LineParser", ptr %10, i32 0, i32 2
  %48 = load ptr, ptr %47, align 8
  %49 = call noundef nonnull align 8 dereferenceable(8) ptr @_ZStlsISt11char_traitsIcEERSt13basic_ostreamIcT_ES5_PKc(ptr noundef nonnull align 8 dereferenceable(8) %46, ptr noundef %48)
  %50 = getelementptr inbounds %"class.cmProcessTools::LineParser", ptr %10, i32 0, i32 3
  %51 = call noundef nonnull align 8 dereferenceable(8) ptr @_ZStlsIcSt11char_traitsIcESaIcEERSt13basic_ostreamIT_T0_ES7_RKNSt7__cxx1112basic_stringIS4_S5_T1_EE(ptr noundef nonnull align 8 dereferenceable(8) %49, ptr noundef nonnull align 8 dereferenceable(32) %50)
  %52 = call noundef nonnull align 8 dereferenceable(8) ptr @_ZStlsISt11char_traitsIcEERSt13basic_ostreamIcT_ES5_PKc(ptr noundef nonnull align 8 dereferenceable(8) %51, ptr noundef @.str.1)
  br label %53

53:                                               ; preds = %44, %40, %33
  %54 = load ptr, ptr %10, align 8
  %55 = getelementptr inbounds ptr, ptr %54, i64 3
  %56 = load ptr, ptr %55, align 8
  %57 = call noundef zeroext i1 %56(ptr noundef nonnull align 8 dereferenceable(59) %10)
  br i1 %57, label %60, label %58

58:                                               ; preds = %53
  %59 = getelementptr inbounds %"class.cmProcessTools::LineParser", ptr %10, i32 0, i32 3
  call void @_ZNSt7__cxx1112basic_stringIcSt11char_traitsIcESaIcEE5clearEv(ptr noundef nonnull align 8 dereferenceable(32) %59) #11
  store i1 false, ptr %4, align 1
  br label %82

60:                                               ; preds = %53
  %61 = getelementptr inbounds %"class.cmProcessTools::LineParser", ptr %10, i32 0, i32 3
  call void @_ZNSt7__cxx1112basic_stringIcSt11char_traitsIcESaIcEE5clearEv(ptr noundef nonnull align 8 dereferenceable(32) %61) #11
  br label %77

62:                                               ; preds = %28
  %63 = load ptr, ptr %9, align 8
  %64 = load i8, ptr %63, align 1
  %65 = sext i8 %64 to i32
  %66 = icmp ne i32 %65, 13
  br i1 %66, label %71, label %67

67:                                               ; preds = %62
  %68 = getelementptr inbounds %"class.cmProcessTools::LineParser", ptr %10, i32 0, i32 6
  %69 = load i8, ptr %68, align 2
  %70 = trunc i8 %69 to i1
  br i1 %70, label %76, label %71

71:                                               ; preds = %67, %62
  %72 = getelementptr inbounds %"class.cmProcessTools::LineParser", ptr %10, i32 0, i32 3
  %73 = load ptr, ptr %9, align 8
  %74 = load i8, ptr %73, align 1
  %75 = call noundef nonnull align 8 dereferenceable(32) ptr @_ZNSt7__cxx1112basic_stringIcSt11char_traitsIcESaIcEE6appendEmc(ptr noundef nonnull align 8 dereferenceable(32) %72, i64 noundef 1, i8 noundef signext %74)
  br label %76

76:                                               ; preds = %71, %67
  br label %77

77:                                               ; preds = %76, %60
  br label %78

78:                                               ; preds = %77
  %79 = load ptr, ptr %9, align 8
  %80 = getelementptr inbounds i8, ptr %79, i32 1
  store ptr %80, ptr %9, align 8
  br label %16, !llvm.loop !8

81:                                               ; preds = %16
  store i1 true, ptr %4, align 1
  br label %82

82:                                               ; preds = %81, %58
  %83 = load i1, ptr %4, align 1
  ret i1 %83
}